target datalayout = "e-m:e-p270:32:32-p271:32:32-p272:64:64-i64:64-i128:128-f80:128-n8:16:32:64-S128"
target triple = "x86_64-pc-linux-gnu"

%struct.OSSL_DAY_TIME_st = type { ptr, ptr, ptr }

@.str.81 = private unnamed_addr constant [21 x i8] c"%02lld:%02lld:%02lld\00", align 1

; Function Attrs: nounwind uwtable
define internal i32 @i2r_OSSL_DAY_TIME(ptr noundef %0, ptr noundef %1, ptr noundef %2, i32 noundef %3) #0 {
  %5 = alloca i32, align 4
  %6 = alloca ptr, align 8
  %7 = alloca ptr, align 8
  %8 = alloca ptr, align 8
  %9 = alloca i32, align 4
  %10 = alloca i64, align 8
  %11 = alloca i64, align 8
  %12 = alloca i64, align 8
  %13 = alloca i32, align 4
  store ptr %0, ptr %6, align 8, !tbaa !54
  store ptr %1, ptr %7, align 8, !tbaa !12
  store ptr %2, ptr %8, align 8, !tbaa !56
  store i32 %3, ptr %9, align 4, !tbaa !58
  call void @llvm.lifetime.start.p0(i64 8, ptr %10) #4
  store i64 0, ptr %10, align 8, !tbaa !10
  call void @llvm.lifetime.start.p0(i64 8, ptr %11) #4
  store i64 0, ptr %11, align 8, !tbaa !10
  call void @llvm.lifetime.start.p0(i64 8, ptr %12) #4
  store i64 0, ptr %12, align 8, !tbaa !10
  %14 = load ptr, ptr %7, align 8, !tbaa !12
  %15 = getelementptr inbounds nuw %struct.OSSL_DAY_TIME_st, ptr %14, i32 0, i32 0
  %16 = load ptr, ptr %15, align 8, !tbaa !112
  %17 = icmp ne ptr %16, null
  br i1 %17, label %18, label %24

18:                                               ; preds = %4
  %19 = load ptr, ptr %7, align 8, !tbaa !12
  %20 = getelementptr inbounds nuw %struct.OSSL_DAY_TIME_st, ptr %19, i32 0, i32 0
  %21 = load ptr, ptr %20, align 8, !tbaa !112
  %22 = call i32 @ASN1_INTEGER_get_int64(ptr noundef %10, ptr noundef %21)
  %23 = icmp ne i32 %22, 0
  br i1 %23, label %25, label %24

24:                                               ; preds = %18, %4
  store i32 0, ptr %5, align 4
  store i32 1, ptr %13, align 4
  br label %57

25:                                               ; preds = %18
  %26 = load ptr, ptr %7, align 8, !tbaa !12
  %27 = getelementptr inbounds nuw %struct.OSSL_DAY_TIME_st, ptr %26, i32 0, i32 1
  %28 = load ptr, ptr %27, align 8, !tbaa !114
  %29 = icmp ne ptr %28, null
  br i1 %29, label %30, label %37

30:                                               ; preds = %25
  %31 = load ptr, ptr %7, align 8, !tbaa !12
  %32 = getelementptr inbounds nuw %struct.OSSL_DAY_TIME_st, ptr %31, i32 0, i32 1
  %33 = load ptr, ptr %32, align 8, !tbaa !114
  %34 = call i32 @ASN1_INTEGER_get_int64(ptr noundef %11, ptr noundef %33)
  %35 = icmp ne i32 %34, 0
  br i1 %35, label %37, label %36

36:                                               ; preds = %30
  store i32 0, ptr %5, align 4
  store i32 1, ptr %13, align 4
  br label %57

37:                                               ; preds = %30, %25
  %38 = load ptr, ptr %7, align 8, !tbaa !12
  %39 = getelementptr inbounds nuw %struct.OSSL_DAY_TIME_st, ptr %38, i32 0, i32 1
  %40 = load ptr, ptr %39, align 8, !tbaa !114
  %41 = icmp ne ptr %40, null
  br i1 %41, label %42, label %49

42:                                               ; preds = %37
  %43 = load ptr, ptr %7, align 8, !tbaa !12
  %44 = getelementptr inbounds nuw %struct.OSSL_DAY_TIME_st, ptr %43, i32 0, i32 2
  %45 = load ptr, ptr %44, align 8, !tbaa !115
  %46 = call i32 @ASN1_INTEGER_get_int64(ptr noundef %12, ptr noundef %45)
  %47 = icmp ne i32 %46, 0
  br i1 %47, label %49, label %48

48:                                               ; preds = %42
  store i32 0, ptr %5, align 4
  store i32 1, ptr %13, align 4
  br label %57

49:                                               ; preds = %42, %37
  %50 = load ptr, ptr %8, align 8, !tbaa !56
  %51 = load i64, ptr %10, align 8, !tbaa !10
  %52 = load i64, ptr %11, align 8, !tbaa !10
  %53 = load i64, ptr %12, align 8, !tbaa !10
  %54 = call i32 (ptr, ptr, ...) @BIO_printf(ptr noundef %50, ptr noundef @.str.81, i64 noundef %51, i64 noundef %52, i64 noundef %53)
  %55 = icmp sgt i32 %54, 0
  %56 = zext i1 %55 to i32
  store i32 %56, ptr %5, align 4
  store i32 1, ptr %13, align 4
  br label %57

57:                                               ; preds = %49, %48, %36, %24
  call void @llvm.lifetime.end.p0(i64 8, ptr %12) #4
  call void @llvm.lifetime.end.p0(i64 8, ptr %11) #4
  call void @llvm.lifetime.end.p0(i64 8, ptr %10) #4
  %58 = load i32, ptr %5, align 4
  ret i32 %58
}