; Function Attrs: nounwind uwtable
define internal fastcc range(i32 0, 2) i32 @i2r_OSSL_DAY_TIME(ptr noundef nonnull readonly captures(none) %0, ptr noundef %1) unnamed_addr #1 {
  %3 = alloca i64, align 8
  %4 = alloca i64, align 8
  %5 = alloca i64, align 8
  call void @llvm.lifetime.start.p0(i64 8, ptr nonnull %3) #4
  store i64 0, ptr %3, align 8, !tbaa !11
  call void @llvm.lifetime.start.p0(i64 8, ptr nonnull %4) #4
  store i64 0, ptr %4, align 8, !tbaa !11
  call void @llvm.lifetime.start.p0(i64 8, ptr nonnull %5) #4
  store i64 0, ptr %5, align 8, !tbaa !11
  %6 = load ptr, ptr %0, align 8, !tbaa !61
  %.not = icmp eq ptr %6, null
  br i1 %.not, label %25, label %7

7:                                                ; preds = %2
  %8 = call i32 @ASN1_INTEGER_get_int64(ptr noundef nonnull %3, ptr noundef nonnull %6) #4
  %.not9 = icmp eq i32 %8, 0
  br i1 %.not9, label %25, label %9

9:                                                ; preds = %7
  %10 = getelementptr inbounds nuw i8, ptr %0, i64 8
  %11 = load ptr, ptr %10, align 8, !tbaa !63
  %.not10 = icmp eq ptr %11, null
  br i1 %.not10, label %.thread, label %12

12:                                               ; preds = %9
  %13 = call i32 @ASN1_INTEGER_get_int64(ptr noundef nonnull %4, ptr noundef nonnull %11) #4
  %.not11 = icmp eq i32 %13, 0
  br i1 %.not11, label %25, label %14

14:                                               ; preds = %12
  %.pr = load ptr, ptr %10, align 8, !tbaa !63
  %.not12 = icmp eq ptr %.pr, null
  br i1 %.not12, label %.thread, label %15

15:                                               ; preds = %14
  %16 = getelementptr inbounds nuw i8, ptr %0, i64 16
  %17 = load ptr, ptr %16, align 8, !tbaa !64
  %18 = call i32 @ASN1_INTEGER_get_int64(ptr noundef nonnull %5, ptr noundef %17) #4
  %.not13 = icmp eq i32 %18, 0
  br i1 %.not13, label %25, label %..thread_crit_edge

..thread_crit_edge:                               ; preds = %15
  %.pre = load i64, ptr %5, align 8, !tbaa !11
  br label %.thread

.thread:                                          ; preds = %..thread_crit_edge, %9, %14
  %19 = phi i64 [ %.pre, %..thread_crit_edge ], [ 0, %9 ], [ 0, %14 ]
  %20 = load i64, ptr %3, align 8, !tbaa !11
  %21 = load i64, ptr %4, align 8, !tbaa !11
  %22 = call i32 (ptr, ptr, ...) @BIO_printf(ptr noundef %1, ptr noundef nonnull @.str.81, i64 noundef %20, i64 noundef %21, i64 noundef %19) #4
  %23 = icmp sgt i32 %22, 0
  %24 = zext i1 %23 to i32
  br label %25

25:                                               ; preds = %15, %12, %2, %7, %.thread
  %.0 = phi i32 [ %24, %.thread ], [ 0, %7 ], [ 0, %2 ], [ 0, %12 ], [ 0, %15 ]
  call void @llvm.lifetime.end.p0(i64 8, ptr nonnull %5) #4
  call void @llvm.lifetime.end.p0(i64 8, ptr nonnull %4) #4
  call void @llvm.lifetime.end.p0(i64 8, ptr nonnull %3) #4
  ret i32 %.0
}